; ModuleID = '23/254.c'
source_filename = "23/254.c"
target datalayout = "e-m:e-p270:32:32-p271:32:32-p272:64:64-i64:64-f80:128-n8:16:32:64-S128"
target triple = "x86_64-pc-linux-gnu"

@.str = private unnamed_addr constant [3 x i8] c"%s\00", align 1
@.str.1 = private unnamed_addr constant [4 x i8] c"%s \00", align 1

; Function Attrs: noinline nounwind uwtable
define dso_local i32 @main() #0 {
  %1 = alloca i32, align 4
  %2 = alloca [100 x [100 x i8]], align 16
  %3 = alloca i32, align 4
  %4 = alloca i32, align 4
  %5 = alloca i32, align 4
  %6 = alloca i8, align 1
  %7 = alloca i32, align 4
  store i32 0, i32* %1, align 4
  %8 = bitcast [100 x [100 x i8]]* %2 to i8*
  call void @llvm.memset.p0i8.i64(i8* align 16 %8, i8 0, i64 10000, i1 false)
  store i32 0, i32* %7, align 4
  br label %9

9:                                                ; preds = %26, %0
  %10 = load i32, i32* %7, align 4
  %11 = icmp sle i32 %10, 99
  br i1 %11, label %12, label %29

12:                                               ; preds = %9
  %13 = load i32, i32* %7, align 4
  %14 = sext i32 %13 to i64
  %15 = getelementptr inbounds [100 x [100 x i8]], [100 x [100 x i8]]* %2, i64 0, i64 %14
  %16 = getelementptr inbounds [100 x i8], [100 x i8]* %15, i64 0, i64 0
  %17 = call i32 (i8*, ...) @__isoc99_scanf(i8* getelementptr inbounds ([3 x i8], [3 x i8]* @.str, i64 0, i64 0), i8* %16)
  %18 = call i32 @getchar()
  %19 = trunc i32 %18 to i8
  store i8 %19, i8* %6, align 1
  %20 = load i8, i8* %6, align 1
  %21 = sext i8 %20 to i32
  %22 = icmp eq i32 %21, 10
  br i1 %22, label %23, label %25

23:                                               ; preds = %12
  %24 = load i32, i32* %7, align 4
  store i32 %24, i32* %3, align 4
  br label %29

25:                                               ; preds = %12
  br label %26

26:                                               ; preds = %25
  %27 = load i32, i32* %7, align 4
  %28 = add nsw i32 %27, 1
  store i32 %28, i32* %7, align 4
  br label %9

29:                                               ; preds = %23, %9
  %30 = load i32, i32* %3, align 4
  store i32 %30, i32* %4, align 4
  br label %31

31:                                               ; preds = %40, %29
  %32 = load i32, i32* %4, align 4
  %33 = icmp sge i32 %32, 1
  br i1 %33, label %34, label %43

34:                                               ; preds = %31
  %35 = load i32, i32* %4, align 4
  %36 = sext i32 %35 to i64
  %37 = getelementptr inbounds [100 x [100 x i8]], [100 x [100 x i8]]* %2, i64 0, i64 %36
  %38 = getelementptr inbounds [100 x i8], [100 x i8]* %37, i64 0, i64 0
  %39 = call i32 (i8*, ...) @printf(i8* getelementptr inbounds ([4 x i8], [4 x i8]* @.str.1, i64 0, i64 0), i8* %38)
  br label %40

40:                                               ; preds = %34
  %41 = load i32, i32* %4, align 4
  %42 = add nsw i32 %41, -1
  store i32 %42, i32* %4, align 4
  br label %31

43:                                               ; preds = %31
  %44 = getelementptr inbounds [100 x [100 x i8]], [100 x [100 x i8]]* %2, i64 0, i64 0
  %45 = getelementptr inbounds [100 x i8], [100 x i8]* %44, i64 0, i64 0
  %46 = call i32 (i8*, ...) @printf(i8* getelementptr inbounds ([3 x i8], [3 x i8]* @.str, i64 0, i64 0), i8* %45)
  ret i32 0
}

; Function Attrs: argmemonly nounwind willreturn
declare void @llvm.memset.p0i8.i64(i8* nocapture writeonly, i8, i64, i1 immarg) #1

declare dso_local i32 @__isoc99_scanf(i8*, ...) #2

declare dso_local i32 @getchar() #2

declare dso_local i32 @printf(i8*, ...) #2


!llvm.module.flags = !{!0}
!llvm.ident = !{!1}

!0 = !{i32 1, !"wchar_size", i32 4}
!1 = !{!"clang version 10.0.0-4ubuntu1 "}
